target datalayout = "e-m:e-p270:32:32-p271:32:32-p272:64:64-i64:64-i128:128-f80:128-n8:16:32:64-S128"
target triple = "x86_64-pc-linux-gnu"

%struct.HeapScanDescData = type { %struct.TableScanDescData, i32, i32, i32, i8, i16, i32, i32, ptr, %struct.HeapTupleData, ptr, i32, i32, ptr, i32, i32, [291 x i16] }
%struct.TableScanDescData = type { ptr, ptr, i32, ptr, %union.anon, i32, ptr }
%union.anon = type { %struct.TBMIterator }
%struct.TBMIterator = type { i8, %union.anon.0 }
%union.anon.0 = type { ptr }
%struct.HeapTupleData = type { i32, %struct.ItemPointerData, i32, ptr }
%struct.ItemPointerData = type { %struct.BlockIdData, i16 }
%struct.BlockIdData = type { i16, i16 }
%struct.anon = type { %struct.ItemPointerData, %struct.ItemPointerData }

; Function Attrs: inlinehint nounwind uwtable
define internal i32 @BlockIdGetBlockNumber(ptr noundef %0) #3 {
  %2 = alloca ptr, align 8
  store ptr %0, ptr %2, align 8
  %3 = load ptr, ptr %2, align 8
  %4 = getelementptr inbounds nuw %struct.BlockIdData, ptr %3, i32 0, i32 0
  %5 = load i16, ptr %4, align 2
  %6 = zext i16 %5 to i32
  %7 = shl i32 %6, 16
  %8 = load ptr, ptr %2, align 8
  %9 = getelementptr inbounds nuw %struct.BlockIdData, ptr %8, i32 0, i32 1
  %10 = load i16, ptr %9, align 2
  %11 = zext i16 %10 to i32
  %12 = or i32 %7, %11
  ret i32 %12
}

; Function Attrs: inlinehint nounwind uwtable
define internal void @BlockIdSet(ptr noundef %0, i32 noundef %1) #3 {
  %3 = alloca ptr, align 8
  %4 = alloca i32, align 4
  store ptr %0, ptr %3, align 8
  store i32 %1, ptr %4, align 4
  %5 = load i32, ptr %4, align 4
  %6 = lshr i32 %5, 16
  %7 = trunc i32 %6 to i16
  %8 = load ptr, ptr %3, align 8
  %9 = getelementptr inbounds nuw %struct.BlockIdData, ptr %8, i32 0, i32 0
  store i16 %7, ptr %9, align 2
  %10 = load i32, ptr %4, align 4
  %11 = and i32 %10, 65535
  %12 = trunc i32 %11 to i16
  %13 = load ptr, ptr %3, align 8
  %14 = getelementptr inbounds nuw %struct.BlockIdData, ptr %13, i32 0, i32 1
  store i16 %12, ptr %14, align 2
  ret void
}

; Function Attrs: inlinehint nounwind uwtable
define internal i32 @ItemPointerGetBlockNumberNoCheck(ptr noundef %0) #3 {
  %2 = alloca ptr, align 8
  store ptr %0, ptr %2, align 8
  %3 = load ptr, ptr %2, align 8
  %4 = getelementptr inbounds nuw %struct.ItemPointerData, ptr %3, i32 0, i32 0
  %5 = call i32 @BlockIdGetBlockNumber(ptr noundef %4)
  ret i32 %5
}

; Function Attrs: nounwind uwtable
define dso_local void @heap_setscanlimits(ptr noundef %0, i32 noundef %1, i32 noundef %2) #0 {
  %4 = alloca ptr, align 8
  %5 = alloca i32, align 4
  %6 = alloca i32, align 4
  %7 = alloca ptr, align 8
  store ptr %0, ptr %4, align 8
  store i32 %1, ptr %5, align 4
  store i32 %2, ptr %6, align 4
  call void @llvm.lifetime.start.p0(i64 8, ptr %7) #10
  %8 = load ptr, ptr %4, align 8
  store ptr %8, ptr %7, align 8
  %9 = load i32, ptr %5, align 4
  %10 = load ptr, ptr %7, align 8
  %11 = getelementptr inbounds nuw %struct.HeapScanDescData, ptr %10, i32 0, i32 2
  store i32 %9, ptr %11, align 4
  %12 = load i32, ptr %6, align 4
  %13 = load ptr, ptr %7, align 8
  %14 = getelementptr inbounds nuw %struct.HeapScanDescData, ptr %13, i32 0, i32 3
  store i32 %12, ptr %14, align 8
  call void @llvm.lifetime.end.p0(i64 8, ptr %7) #10
  ret void
}

; Function Attrs: inlinehint nounwind uwtable
define internal void @ItemPointerCopy(ptr noundef %0, ptr noundef %1) #3 {
  %3 = alloca ptr, align 8
  %4 = alloca ptr, align 8
  store ptr %0, ptr %3, align 8
  store ptr %1, ptr %4, align 8
  %5 = load ptr, ptr %4, align 8
  %6 = load ptr, ptr %3, align 8
  call void @llvm.memcpy.p0.p0.i64(ptr align 2 %5, ptr align 2 %6, i64 6, i1 false)
  ret void
}

; Function Attrs: inlinehint nounwind uwtable
define internal void @ItemPointerSet(ptr noundef %0, i32 noundef %1, i16 noundef zeroext %2) #3 {
  %4 = alloca ptr, align 8
  %5 = alloca i32, align 4
  %6 = alloca i16, align 2
  store ptr %0, ptr %4, align 8
  store i32 %1, ptr %5, align 4
  store i16 %2, ptr %6, align 2
  %7 = load ptr, ptr %4, align 8
  %8 = getelementptr inbounds nuw %struct.ItemPointerData, ptr %7, i32 0, i32 0
  %9 = load i32, ptr %5, align 4
  call void @BlockIdSet(ptr noundef %8, i32 noundef %9)
  %10 = load i16, ptr %6, align 2
  %11 = load ptr, ptr %4, align 8
  %12 = getelementptr inbounds nuw %struct.ItemPointerData, ptr %11, i32 0, i32 1
  store i16 %10, ptr %12, align 2
  ret void
}

; Function Attrs: nounwind uwtable
define dso_local void @heap_set_tidrange(ptr noundef %0, ptr noundef %1, ptr noundef %2) #0 {
  %4 = alloca ptr, align 8
  %5 = alloca ptr, align 8
  %6 = alloca ptr, align 8
  %7 = alloca ptr, align 8
  %8 = alloca i32, align 4
  %9 = alloca i32, align 4
  %10 = alloca %struct.ItemPointerData, align 2
  %11 = alloca %struct.ItemPointerData, align 2
  %12 = alloca i32, align 4
  store ptr %0, ptr %4, align 8
  store ptr %1, ptr %5, align 8
  store ptr %2, ptr %6, align 8
  call void @llvm.lifetime.start.p0(i64 8, ptr %7) #10
  %13 = load ptr, ptr %4, align 8
  store ptr %13, ptr %7, align 8
  call void @llvm.lifetime.start.p0(i64 4, ptr %8) #10
  call void @llvm.lifetime.start.p0(i64 4, ptr %9) #10
  call void @llvm.lifetime.start.p0(i64 6, ptr %10) #10
  call void @llvm.lifetime.start.p0(i64 6, ptr %11) #10
  %14 = load ptr, ptr %7, align 8
  %15 = getelementptr inbounds nuw %struct.HeapScanDescData, ptr %14, i32 0, i32 1
  %16 = load i32, ptr %15, align 8
  %17 = icmp eq i32 %16, 0
  br i1 %17, label %18, label %19

18:                                               ; preds = %3
  store i32 1, ptr %12, align 4
  br label %55

19:                                               ; preds = %3
  %20 = load ptr, ptr %7, align 8
  %21 = getelementptr inbounds nuw %struct.HeapScanDescData, ptr %20, i32 0, i32 1
  %22 = load i32, ptr %21, align 8
  %23 = sub i32 %22, 1
  call void @ItemPointerSet(ptr noundef %10, i32 noundef %23, i16 noundef zeroext 2048)
  call void @ItemPointerSet(ptr noundef %11, i32 noundef 0, i16 noundef zeroext 1)
  %24 = load ptr, ptr %6, align 8
  %25 = call i32 @ItemPointerCompare(ptr noundef %24, ptr noundef %10)
  %26 = icmp slt i32 %25, 0
  br i1 %26, label %27, label %29

27:                                               ; preds = %19
  %28 = load ptr, ptr %6, align 8
  call void @ItemPointerCopy(ptr noundef %28, ptr noundef %10)
  br label %29

29:                                               ; preds = %27, %19
  %30 = load ptr, ptr %5, align 8
  %31 = call i32 @ItemPointerCompare(ptr noundef %30, ptr noundef %11)
  %32 = icmp sgt i32 %31, 0
  br i1 %32, label %33, label %35

33:                                               ; preds = %29
  %34 = load ptr, ptr %5, align 8
  call void @ItemPointerCopy(ptr noundef %34, ptr noundef %11)
  br label %35

35:                                               ; preds = %33, %29
  %36 = call i32 @ItemPointerCompare(ptr noundef %10, ptr noundef %11)
  %37 = icmp slt i32 %36, 0
  br i1 %37, label %38, label %40

38:                                               ; preds = %35
  %39 = load ptr, ptr %4, align 8
  call void @heap_setscanlimits(ptr noundef %39, i32 noundef 0, i32 noundef 0)
  store i32 1, ptr %12, align 4
  br label %55

40:                                               ; preds = %35
  %41 = call i32 @ItemPointerGetBlockNumberNoCheck(ptr noundef %11)
  store i32 %41, ptr %8, align 4
  %42 = call i32 @ItemPointerGetBlockNumberNoCheck(ptr noundef %10)
  %43 = call i32 @ItemPointerGetBlockNumberNoCheck(ptr noundef %11)
  %44 = sub i32 %42, %43
  %45 = add i32 %44, 1
  store i32 %45, ptr %9, align 4
  %46 = load ptr, ptr %4, align 8
  %47 = load i32, ptr %8, align 4
  %48 = load i32, ptr %9, align 4
  call void @heap_setscanlimits(ptr noundef %46, i32 noundef %47, i32 noundef %48)
  %49 = load ptr, ptr %4, align 8
  %50 = getelementptr inbounds nuw %struct.TableScanDescData, ptr %49, i32 0, i32 4
  %51 = getelementptr inbounds nuw %struct.anon, ptr %50, i32 0, i32 0
  call void @ItemPointerCopy(ptr noundef %11, ptr noundef %51)
  %52 = load ptr, ptr %4, align 8
  %53 = getelementptr inbounds nuw %struct.TableScanDescData, ptr %52, i32 0, i32 4
  %54 = getelementptr inbounds nuw %struct.anon, ptr %53, i32 0, i32 1
  call void @ItemPointerCopy(ptr noundef %10, ptr noundef %54)
  store i32 0, ptr %12, align 4
  br label %55

55:                                               ; preds = %40, %38, %18
  call void @llvm.lifetime.end.p0(i64 6, ptr %11) #10
  call void @llvm.lifetime.end.p0(i64 6, ptr %10) #10
  call void @llvm.lifetime.end.p0(i64 4, ptr %9) #10
  call void @llvm.lifetime.end.p0(i64 4, ptr %8) #10
  call void @llvm.lifetime.end.p0(i64 8, ptr %7) #10
  %56 = load i32, ptr %12, align 4
  switch i32 %56, label %58 [
    i32 0, label %57
    i32 1, label %57
  ]

57:                                               ; preds = %55, %55
  ret void

58:                                               ; preds = %55
  unreachable
}