; Function Attrs: nounwind uwtable
define dso_local void @heap_set_tidrange(ptr noundef captures(none) %0, ptr noundef %1, ptr noundef %2) local_unnamed_addr #2 {
  %4 = alloca %struct.ItemPointerData, align 2
  %5 = alloca %struct.ItemPointerData, align 2
  call void @llvm.lifetime.start.p0(i64 6, ptr nonnull %4) #13
  call void @llvm.lifetime.start.p0(i64 6, ptr nonnull %5) #13
  %6 = getelementptr inbounds nuw i8, ptr %0, i64 64
  %7 = load i32, ptr %6, align 8
  %8 = icmp eq i32 %7, 0
  br i1 %8, label %45, label %9

9:                                                ; preds = %3
  %10 = add i32 %7, -1
  %11 = lshr i32 %10, 16
  %12 = trunc nuw i32 %11 to i16
  store i16 %12, ptr %4, align 2
  %13 = trunc i32 %10 to i16
  %14 = getelementptr inbounds nuw i8, ptr %4, i64 2
  store i16 %13, ptr %14, align 2
  %15 = getelementptr inbounds nuw i8, ptr %4, i64 4
  store i16 2048, ptr %15, align 2
  store i16 0, ptr %5, align 2
  %16 = getelementptr inbounds nuw i8, ptr %5, i64 2
  store i16 0, ptr %16, align 2
  %17 = getelementptr inbounds nuw i8, ptr %5, i64 4
  store i16 1, ptr %17, align 2
  %18 = call i32 @ItemPointerCompare(ptr noundef %2, ptr noundef nonnull %4) #13
  %19 = icmp slt i32 %18, 0
  br i1 %19, label %20, label %21

20:                                               ; preds = %9
  call void @llvm.memcpy.p0.p0.i64(ptr noundef nonnull align 2 dereferenceable(6) %4, ptr noundef nonnull readonly align 2 dereferenceable(6) %2, i64 6, i1 false)
  br label %21

21:                                               ; preds = %20, %9
  %22 = call i32 @ItemPointerCompare(ptr noundef %1, ptr noundef nonnull %5) #13
  %23 = icmp sgt i32 %22, 0
  br i1 %23, label %24, label %25

24:                                               ; preds = %21
  call void @llvm.memcpy.p0.p0.i64(ptr noundef nonnull align 2 dereferenceable(6) %5, ptr noundef nonnull readonly align 2 dereferenceable(6) %1, i64 6, i1 false)
  br label %25

25:                                               ; preds = %24, %21
  %26 = call i32 @ItemPointerCompare(ptr noundef nonnull %4, ptr noundef nonnull %5) #13
  %27 = icmp slt i32 %26, 0
  br i1 %27, label %28, label %31

28:                                               ; preds = %25
  %29 = getelementptr inbounds nuw i8, ptr %0, i64 68
  store i32 0, ptr %29, align 4
  %30 = getelementptr inbounds nuw i8, ptr %0, i64 72
  store i32 0, ptr %30, align 8
  br label %45

31:                                               ; preds = %25
  %.val = load i16, ptr %5, align 2
  %.val12 = load i16, ptr %16, align 2
  %32 = zext i16 %.val to i32
  %33 = shl nuw i32 %32, 16
  %34 = zext i16 %.val12 to i32
  %35 = or disjoint i32 %33, %34
  %.val13 = load i16, ptr %4, align 2
  %.val14 = load i16, ptr %14, align 2
  %36 = zext i16 %.val13 to i32
  %37 = shl nuw i32 %36, 16
  %38 = zext i16 %.val14 to i32
  %39 = or disjoint i32 %37, %38
  %reass.sub = sub i32 %39, %35
  %40 = add i32 %reass.sub, 1
  %41 = getelementptr inbounds nuw i8, ptr %0, i64 68
  store i32 %35, ptr %41, align 4
  %42 = getelementptr inbounds nuw i8, ptr %0, i64 72
  store i32 %40, ptr %42, align 8
  %43 = getelementptr inbounds nuw i8, ptr %0, i64 32
  call void @llvm.memcpy.p0.p0.i64(ptr noundef nonnull align 2 dereferenceable(6) %43, ptr noundef nonnull readonly align 2 dereferenceable(6) %5, i64 6, i1 false)
  %44 = getelementptr inbounds nuw i8, ptr %0, i64 38
  call void @llvm.memcpy.p0.p0.i64(ptr noundef nonnull align 2 dereferenceable(6) %44, ptr noundef nonnull readonly align 2 dereferenceable(6) %4, i64 6, i1 false)
  br label %45

45:                                               ; preds = %3, %31, %28
  call void @llvm.lifetime.end.p0(i64 6, ptr nonnull %5) #13
  call void @llvm.lifetime.end.p0(i64 6, ptr nonnull %4) #13
  ret void
}